target datalayout = "e-m:e-p270:32:32-p271:32:32-p272:64:64-i64:64-i128:128-f80:128-n8:16:32:64-S128"
target triple = "x86_64-unknown-linux-gnu"

%"class.std::__shared_count" = type { ptr }
%"class.std::shared_ptr.22" = type { %"class.std::__shared_ptr.23" }
%"class.std::__shared_ptr.23" = type { ptr, %"class.std::__shared_count" }
%"class.rocksdb::(anonymous namespace)::FastLocalBloomBitsBuilder" = type <{ %"class.rocksdb::(anonymous namespace)::XXPH3FilterBitsBuilder", i32, [4 x i8] }>
%"class.rocksdb::(anonymous namespace)::XXPH3FilterBitsBuilder" = type { %"class.rocksdb::BuiltinFilterBitsBuilder", ptr, %"class.std::shared_ptr.22", %"class.std::deque", i8, %"struct.rocksdb::(anonymous namespace)::XXPH3FilterBitsBuilder::HashEntriesInfo" }
%"class.rocksdb::BuiltinFilterBitsBuilder" = type { %"class.rocksdb::FilterBitsBuilder" }
%"class.rocksdb::FilterBitsBuilder" = type { ptr }
%"class.std::deque" = type { %"class.std::_Deque_base" }
%"class.std::_Deque_base" = type { %"struct.std::_Deque_base<std::unique_ptr<rocksdb::CacheReservationManager::CacheReservationHandle>, std::allocator<std::unique_ptr<rocksdb::CacheReservationManager::CacheReservationHandle>>>::_Deque_impl" }
%"struct.std::_Deque_base<std::unique_ptr<rocksdb::CacheReservationManager::CacheReservationHandle>, std::allocator<std::unique_ptr<rocksdb::CacheReservationManager::CacheReservationHandle>>>::_Deque_impl" = type { %"struct.std::_Deque_base<std::unique_ptr<rocksdb::CacheReservationManager::CacheReservationHandle>, std::allocator<std::unique_ptr<rocksdb::CacheReservationManager::CacheReservationHandle>>>::_Deque_impl_data" }
%"struct.std::_Deque_base<std::unique_ptr<rocksdb::CacheReservationManager::CacheReservationHandle>, std::allocator<std::unique_ptr<rocksdb::CacheReservationManager::CacheReservationHandle>>>::_Deque_impl_data" = type { ptr, i64, %"struct.std::_Deque_iterator", %"struct.std::_Deque_iterator" }
%"struct.std::_Deque_iterator" = type { ptr, ptr, ptr, ptr }
%"struct.rocksdb::(anonymous namespace)::XXPH3FilterBitsBuilder::HashEntriesInfo" = type { %"class.std::deque.31", %"class.std::deque", i64 }
%"class.std::deque.31" = type { %"class.std::_Deque_base.32" }
%"class.std::_Deque_base.32" = type { %"struct.std::_Deque_base<unsigned long, std::allocator<unsigned long>>::_Deque_impl" }
%"struct.std::_Deque_base<unsigned long, std::allocator<unsigned long>>::_Deque_impl" = type { %"struct.std::_Deque_base<unsigned long, std::allocator<unsigned long>>::_Deque_impl_data" }
%"struct.std::_Deque_base<unsigned long, std::allocator<unsigned long>>::_Deque_impl_data" = type { ptr, i64, %"struct.std::_Deque_iterator.36", %"struct.std::_Deque_iterator.36" }
%"struct.std::_Deque_iterator.36" = type { ptr, ptr, ptr, ptr }
%"class.rocksdb::(anonymous namespace)::Standard128RibbonBitsBuilder" = type { %"class.rocksdb::(anonymous namespace)::XXPH3FilterBitsBuilder", double, ptr, %"class.rocksdb::(anonymous namespace)::FastLocalBloomBitsBuilder" }
%"class.rocksdb::Status" = type { i8, i8, i8, i8, i8, i8, %"class.std::unique_ptr" }
%"class.std::unique_ptr" = type { %"struct.std::__uniq_ptr_data" }
%"struct.std::__uniq_ptr_data" = type { %"class.std::__uniq_ptr_impl" }
%"class.std::__uniq_ptr_impl" = type { %"class.std::tuple" }
%"class.std::tuple" = type { %"struct.std::_Tuple_impl" }
%"struct.std::_Tuple_impl" = type { %"struct.std::_Head_base.79" }
%"struct.std::_Head_base.79" = type { ptr }

; Function Attrs: mustprogress nounwind uwtable
define linkonce_odr noundef i64 @_ZSt16__deque_buf_sizem(i64 noundef %__size) #1 comdat {
entry:
  %__size.addr = alloca i64, align 8
  store i64 %__size, ptr %__size.addr, align 8
  %0 = load i64, ptr %__size.addr, align 8
  %cmp = icmp ult i64 %0, 512
  br i1 %cmp, label %cond.true, label %cond.false

cond.true:                                        ; preds = %entry
  %1 = load i64, ptr %__size.addr, align 8
  %div = udiv i64 512, %1
  br label %cond.end

cond.false:                                       ; preds = %entry
  br label %cond.end

cond.end:                                         ; preds = %cond.false, %cond.true
  %cond = phi i64 [ %div, %cond.true ], [ 1, %cond.false ]
  ret i64 %cond
}

; Function Attrs: mustprogress nounwind uwtable
define linkonce_odr noundef i64 @_ZNSt15_Deque_iteratorImRmPmE14_S_buffer_sizeEv() #1 comdat align 2 {
entry:
  %call = call noundef i64 @_ZSt16__deque_buf_sizem(i64 noundef 8)
  ret i64 %call
}

; Function Attrs: mustprogress nounwind uwtable
define linkonce_odr noundef i64 @_ZStmiRKSt15_Deque_iteratorImRmPmES4_(ptr noundef nonnull align 8 dereferenceable(32) %__x, ptr noundef nonnull align 8 dereferenceable(32) %__y) #1 comdat {
entry:
  %__x.addr = alloca ptr, align 8
  %__y.addr = alloca ptr, align 8
  store ptr %__x, ptr %__x.addr, align 8
  store ptr %__y, ptr %__y.addr, align 8
  %call = call noundef i64 @_ZNSt15_Deque_iteratorImRmPmE14_S_buffer_sizeEv() #3
  %0 = load ptr, ptr %__x.addr, align 8
  %_M_node = getelementptr inbounds %"struct.std::_Deque_iterator.36", ptr %0, i32 0, i32 3
  %1 = load ptr, ptr %_M_node, align 8
  %2 = load ptr, ptr %__y.addr, align 8
  %_M_node1 = getelementptr inbounds %"struct.std::_Deque_iterator.36", ptr %2, i32 0, i32 3
  %3 = load ptr, ptr %_M_node1, align 8
  %sub.ptr.lhs.cast = ptrtoint ptr %1 to i64
  %sub.ptr.rhs.cast = ptrtoint ptr %3 to i64
  %sub.ptr.sub = sub i64 %sub.ptr.lhs.cast, %sub.ptr.rhs.cast
  %sub.ptr.div = sdiv exact i64 %sub.ptr.sub, 8
  %4 = load ptr, ptr %__x.addr, align 8
  %_M_node2 = getelementptr inbounds %"struct.std::_Deque_iterator.36", ptr %4, i32 0, i32 3
  %5 = load ptr, ptr %_M_node2, align 8
  %tobool = icmp ne ptr %5, null
  %conv = zext i1 %tobool to i64
  %sub = sub nsw i64 %sub.ptr.div, %conv
  %mul = mul nsw i64 %call, %sub
  %6 = load ptr, ptr %__x.addr, align 8
  %_M_cur = getelementptr inbounds %"struct.std::_Deque_iterator.36", ptr %6, i32 0, i32 0
  %7 = load ptr, ptr %_M_cur, align 8
  %8 = load ptr, ptr %__x.addr, align 8
  %_M_first = getelementptr inbounds %"struct.std::_Deque_iterator.36", ptr %8, i32 0, i32 1
  %9 = load ptr, ptr %_M_first, align 8
  %sub.ptr.lhs.cast3 = ptrtoint ptr %7 to i64
  %sub.ptr.rhs.cast4 = ptrtoint ptr %9 to i64
  %sub.ptr.sub5 = sub i64 %sub.ptr.lhs.cast3, %sub.ptr.rhs.cast4
  %sub.ptr.div6 = sdiv exact i64 %sub.ptr.sub5, 8
  %add = add nsw i64 %mul, %sub.ptr.div6
  %10 = load ptr, ptr %__y.addr, align 8
  %_M_last = getelementptr inbounds %"struct.std::_Deque_iterator.36", ptr %10, i32 0, i32 2
  %11 = load ptr, ptr %_M_last, align 8
  %12 = load ptr, ptr %__y.addr, align 8
  %_M_cur7 = getelementptr inbounds %"struct.std::_Deque_iterator.36", ptr %12, i32 0, i32 0
  %13 = load ptr, ptr %_M_cur7, align 8
  %sub.ptr.lhs.cast8 = ptrtoint ptr %11 to i64
  %sub.ptr.rhs.cast9 = ptrtoint ptr %13 to i64
  %sub.ptr.sub10 = sub i64 %sub.ptr.lhs.cast8, %sub.ptr.rhs.cast9
  %sub.ptr.div11 = sdiv exact i64 %sub.ptr.sub10, 8
  %add12 = add nsw i64 %add, %sub.ptr.div11
  ret i64 %add12
}

; Function Attrs: mustprogress nounwind uwtable
define linkonce_odr noundef i64 @_ZNKSt5dequeImSaImEE4sizeEv(ptr noundef nonnull align 8 dereferenceable(80) %this) #1 comdat align 2 {
entry:
  %this.addr = alloca ptr, align 8
  store ptr %this, ptr %this.addr, align 8
  %this1 = load ptr, ptr %this.addr, align 8
  %_M_impl = getelementptr inbounds %"class.std::_Deque_base.32", ptr %this1, i32 0, i32 0
  %_M_finish = getelementptr inbounds %"struct.std::_Deque_base<unsigned long, std::allocator<unsigned long>>::_Deque_impl_data", ptr %_M_impl, i32 0, i32 3
  %_M_impl2 = getelementptr inbounds %"class.std::_Deque_base.32", ptr %this1, i32 0, i32 0
  %_M_start = getelementptr inbounds %"struct.std::_Deque_base<unsigned long, std::allocator<unsigned long>>::_Deque_impl_data", ptr %_M_impl2, i32 0, i32 2
  %call = call noundef i64 @_ZStmiRKSt15_Deque_iteratorImRmPmES4_(ptr noundef nonnull align 8 dereferenceable(32) %_M_finish, ptr noundef nonnull align 8 dereferenceable(32) %_M_start) #3
  ret i64 %call
}

; Function Attrs: mustprogress nounwind uwtable
define internal noundef i64 @_ZN7rocksdb12_GLOBAL__N_122XXPH3FilterBitsBuilder20EstimateEntriesAddedEv(ptr noundef nonnull align 8 dereferenceable(288) %this) unnamed_addr #1 align 2 {
entry:
  %this.addr = alloca ptr, align 8
  store ptr %this, ptr %this.addr, align 8
  %this1 = load ptr, ptr %this.addr, align 8
  %hash_entries_info_ = getelementptr inbounds %"class.rocksdb::(anonymous namespace)::XXPH3FilterBitsBuilder", ptr %this1, i32 0, i32 5
  %entries = getelementptr inbounds %"struct.rocksdb::(anonymous namespace)::XXPH3FilterBitsBuilder::HashEntriesInfo", ptr %hash_entries_info_, i32 0, i32 0
  %call = call noundef i64 @_ZNKSt5dequeImSaImEE4sizeEv(ptr noundef nonnull align 8 dereferenceable(80) %entries) #3
  ret i64 %call
}

; Function Attrs: mustprogress uwtable
define internal void @_ZN7rocksdb12_GLOBAL__N_128Standard128RibbonBitsBuilder15MaybePostVerifyERKNS_5SliceE(ptr noalias sret(%"class.rocksdb::Status") align 8 %agg.result, ptr noundef nonnull align 8 dereferenceable(600) %this, ptr noundef nonnull align 8 dereferenceable(16) %filter_content) unnamed_addr #0 align 2 {
entry:
  %result.ptr = alloca ptr, align 8
  %this.addr = alloca ptr, align 8
  %filter_content.addr = alloca ptr, align 8
  %fall_back = alloca i8, align 1
  store ptr %agg.result, ptr %result.ptr, align 8
  store ptr %this, ptr %this.addr, align 8
  store ptr %filter_content, ptr %filter_content.addr, align 8
  %this1 = load ptr, ptr %this.addr, align 8
  %bloom_fallback_ = getelementptr inbounds %"class.rocksdb::(anonymous namespace)::Standard128RibbonBitsBuilder", ptr %this1, i32 0, i32 3
  %call = call noundef i64 @_ZN7rocksdb12_GLOBAL__N_122XXPH3FilterBitsBuilder20EstimateEntriesAddedEv(ptr noundef nonnull align 8 dereferenceable(288) %bloom_fallback_)
  %cmp = icmp ugt i64 %call, 0
  %frombool = zext i1 %cmp to i8
  store i8 %frombool, ptr %fall_back, align 1
  %0 = load i8, ptr %fall_back, align 1
  %tobool = trunc i8 %0 to i1
  br i1 %tobool, label %cond.true, label %cond.false

cond.true:                                        ; preds = %entry
  %bloom_fallback_2 = getelementptr inbounds %"class.rocksdb::(anonymous namespace)::Standard128RibbonBitsBuilder", ptr %this1, i32 0, i32 3
  %1 = load ptr, ptr %filter_content.addr, align 8
  call void @_ZN7rocksdb12_GLOBAL__N_122XXPH3FilterBitsBuilder15MaybePostVerifyERKNS_5SliceE(ptr sret(%"class.rocksdb::Status") align 8 %agg.result, ptr noundef nonnull align 8 dereferenceable(288) %bloom_fallback_2, ptr noundef nonnull align 8 dereferenceable(16) %1)
  br label %cond.end

cond.false:                                       ; preds = %entry
  %2 = load ptr, ptr %filter_content.addr, align 8
  call void @_ZN7rocksdb12_GLOBAL__N_122XXPH3FilterBitsBuilder15MaybePostVerifyERKNS_5SliceE(ptr sret(%"class.rocksdb::Status") align 8 %agg.result, ptr noundef nonnull align 8 dereferenceable(288) %this1, ptr noundef nonnull align 8 dereferenceable(16) %2)
  br label %cond.end

cond.end:                                         ; preds = %cond.false, %cond.true
  ret void
}