; Function Attrs: mustprogress uwtable
define internal void @_ZN7rocksdb12_GLOBAL__N_128Standard128RibbonBitsBuilder15MaybePostVerifyERKNS_5SliceE(ptr noalias sret(%"class.rocksdb::Status") align 8 %agg.result, ptr noundef nonnull align 8 dereferenceable(600) %this, ptr nocapture noundef nonnull readonly align 8 dereferenceable(16) %filter_content) unnamed_addr #3 align 2 {
entry:
  %_M_finish.i.i = getelementptr inbounds i8, ptr %this, i64 472
  %_M_start.i.i = getelementptr inbounds i8, ptr %this, i64 440
  %_M_node.i.i.i = getelementptr inbounds i8, ptr %this, i64 496
  %0 = load ptr, ptr %_M_node.i.i.i, align 8
  %_M_node1.i.i.i = getelementptr inbounds i8, ptr %this, i64 464
  %1 = load ptr, ptr %_M_node1.i.i.i, align 8
  %sub.ptr.lhs.cast.i.i.i = ptrtoint ptr %0 to i64
  %sub.ptr.rhs.cast.i.i.i = ptrtoint ptr %1 to i64
  %sub.ptr.sub.i.i.i = sub i64 %sub.ptr.lhs.cast.i.i.i, %sub.ptr.rhs.cast.i.i.i
  %sub.ptr.div.i.i.i = ashr exact i64 %sub.ptr.sub.i.i.i, 3
  %tobool.i.i.i = icmp ne ptr %0, null
  %conv.neg.i.i.i = sext i1 %tobool.i.i.i to i64
  %sub.i.i.i = add nsw i64 %sub.ptr.div.i.i.i, %conv.neg.i.i.i
  %mul.i.i.i = shl nsw i64 %sub.i.i.i, 6
  %2 = load ptr, ptr %_M_finish.i.i, align 8
  %_M_first.i.i.i = getelementptr inbounds i8, ptr %this, i64 480
  %3 = load ptr, ptr %_M_first.i.i.i, align 8
  %sub.ptr.lhs.cast3.i.i.i = ptrtoint ptr %2 to i64
  %sub.ptr.rhs.cast4.i.i.i = ptrtoint ptr %3 to i64
  %sub.ptr.sub5.i.i.i = sub i64 %sub.ptr.lhs.cast3.i.i.i, %sub.ptr.rhs.cast4.i.i.i
  %sub.ptr.div6.i.i.i = ashr exact i64 %sub.ptr.sub5.i.i.i, 3
  %add.i.i.i = add nsw i64 %mul.i.i.i, %sub.ptr.div6.i.i.i
  %_M_last.i.i.i = getelementptr inbounds i8, ptr %this, i64 456
  %4 = load ptr, ptr %_M_last.i.i.i, align 8
  %5 = load ptr, ptr %_M_start.i.i, align 8
  %sub.ptr.lhs.cast8.i.i.i = ptrtoint ptr %4 to i64
  %sub.ptr.rhs.cast9.i.i.i = ptrtoint ptr %5 to i64
  %sub.ptr.sub10.i.i.i = sub i64 %sub.ptr.lhs.cast8.i.i.i, %sub.ptr.rhs.cast9.i.i.i
  %sub.ptr.div11.i.i.i = ashr exact i64 %sub.ptr.sub10.i.i.i, 3
  %add12.i.i.i = sub nsw i64 0, %sub.ptr.div11.i.i.i
  %cmp.not = icmp eq i64 %add.i.i.i, %add12.i.i.i
  %this.sink.idx = select i1 %cmp.not, i64 0, i64 304
  %this.sink = getelementptr inbounds i8, ptr %this, i64 %this.sink.idx
  tail call void @_ZN7rocksdb12_GLOBAL__N_122XXPH3FilterBitsBuilder15MaybePostVerifyERKNS_5SliceE(ptr sret(%"class.rocksdb::Status") align 8 %agg.result, ptr noundef nonnull align 8 dereferenceable(288) %this.sink, ptr noundef nonnull align 8 dereferenceable(16) %filter_content)
  ret void
}